; ModuleID = 'source-C-CXX/57/213.c'
source_filename = "source-C-CXX/57/213.c"
target datalayout = "e-m:e-p270:32:32-p271:32:32-p272:64:64-i64:64-f80:128-n8:16:32:64-S128"
target triple = "x86_64-pc-linux-gnu"

%struct._IO_FILE = type { i32, i8*, i8*, i8*, i8*, i8*, i8*, i8*, i8*, i8*, i8*, i8*, %struct._IO_marker*, %struct._IO_FILE*, i32, i32, i64, i16, i8, [1 x i8], i8*, i64, %struct._IO_codecvt*, %struct._IO_wide_data*, %struct._IO_FILE*, i8*, i64, i32, [20 x i8] }
%struct._IO_marker = type opaque
%struct._IO_codecvt = type opaque
%struct._IO_wide_data = type opaque

@.str = private unnamed_addr constant [3 x i8] c"%d\00", align 1
@stdin = external local_unnamed_addr global %struct._IO_FILE*, align 8
@str = private unnamed_addr constant [2 x i8] c"0\00", align 1
@str.4 = private unnamed_addr constant [2 x i8] c"1\00", align 1

; Function Attrs: nounwind sspstrong uwtable
define dso_local i32 @main() local_unnamed_addr #0 {
  %1 = alloca i32, align 4
  %2 = alloca [100 x i8], align 16
  %3 = bitcast i32* %1 to i8*
  call void @llvm.lifetime.start.p0i8(i64 4, i8* nonnull %3) #6
  %4 = getelementptr inbounds [100 x i8], [100 x i8]* %2, i64 0, i64 0
  call void @llvm.lifetime.start.p0i8(i64 100, i8* nonnull %4) #6
  %5 = call i32 (i8*, ...) @__isoc99_scanf(i8* getelementptr inbounds ([3 x i8], [3 x i8]* @.str, i64 0, i64 0), i32* nonnull %1)
  %6 = load %struct._IO_FILE*, %struct._IO_FILE** @stdin, align 8, !tbaa !5
  %7 = call i32 @getc(%struct._IO_FILE* %6) #6
  %8 = load i32, i32* %1, align 4, !tbaa !9
  %9 = icmp slt i32 %8, 1
  br i1 %9, label %10, label %25

10:                                               ; preds = %62, %0
  %11 = load %struct._IO_FILE*, %struct._IO_FILE** @stdin, align 8, !tbaa !5
  %12 = call i32 @getc(%struct._IO_FILE* %11) #6
  %13 = load %struct._IO_FILE*, %struct._IO_FILE** @stdin, align 8, !tbaa !5
  %14 = call i32 @getc(%struct._IO_FILE* %13) #6
  %15 = load %struct._IO_FILE*, %struct._IO_FILE** @stdin, align 8, !tbaa !5
  %16 = call i32 @getc(%struct._IO_FILE* %15) #6
  %17 = load %struct._IO_FILE*, %struct._IO_FILE** @stdin, align 8, !tbaa !5
  %18 = call i32 @getc(%struct._IO_FILE* %17) #6
  %19 = load %struct._IO_FILE*, %struct._IO_FILE** @stdin, align 8, !tbaa !5
  %20 = call i32 @getc(%struct._IO_FILE* %19) #6
  %21 = load %struct._IO_FILE*, %struct._IO_FILE** @stdin, align 8, !tbaa !5
  %22 = call i32 @getc(%struct._IO_FILE* %21) #6
  %23 = load %struct._IO_FILE*, %struct._IO_FILE** @stdin, align 8, !tbaa !5
  %24 = call i32 @getc(%struct._IO_FILE* %23) #6
  call void @llvm.lifetime.end.p0i8(i64 100, i8* nonnull %4) #6
  call void @llvm.lifetime.end.p0i8(i64 4, i8* nonnull %3) #6
  ret i32 0

25:                                               ; preds = %0, %62
  %26 = phi i32 [ %63, %62 ], [ 1, %0 ]
  %27 = call i32 (i8*, ...) bitcast (i32 (...)* @gets to i32 (i8*, ...)*)(i8* nonnull %4) #6
  %28 = call i64 @strlen(i8* noundef nonnull %4) #7
  %29 = trunc i64 %28 to i32
  %30 = load i8, i8* %4, align 16, !tbaa !11
  %31 = icmp eq i8 %30, 95
  %32 = and i8 %30, -33
  %33 = add i8 %32, -65
  %34 = icmp ult i8 %33, 27
  %35 = or i1 %31, %34
  br i1 %35, label %36, label %57

36:                                               ; preds = %25
  %37 = icmp sgt i32 %29, 1
  br i1 %37, label %38, label %55

38:                                               ; preds = %36
  %39 = and i64 %28, 4294967295
  br label %42

40:                                               ; preds = %42
  %41 = icmp eq i64 %54, %39
  br i1 %41, label %59, label %42, !llvm.loop !12

42:                                               ; preds = %38, %40
  %43 = phi i64 [ 1, %38 ], [ %54, %40 ]
  %44 = getelementptr inbounds [100 x i8], [100 x i8]* %2, i64 0, i64 %43
  %45 = load i8, i8* %44, align 1, !tbaa !11
  %46 = icmp eq i8 %45, 95
  %47 = and i8 %45, -33
  %48 = add i8 %47, -65
  %49 = icmp ult i8 %48, 27
  %50 = or i1 %46, %49
  %51 = add i8 %45, -48
  %52 = icmp ult i8 %51, 10
  %53 = or i1 %52, %50
  %54 = add nuw nsw i64 %43, 1
  br i1 %53, label %40, label %57

55:                                               ; preds = %36
  %56 = call i32 @puts(i8* nonnull dereferenceable(1) getelementptr inbounds ([2 x i8], [2 x i8]* @str.4, i64 0, i64 0))
  br label %57

57:                                               ; preds = %42, %25, %55
  %58 = icmp eq i32 %29, 1
  br i1 %58, label %62, label %59

59:                                               ; preds = %40, %57
  %60 = phi i8* [ getelementptr inbounds ([2 x i8], [2 x i8]* @str, i64 0, i64 0), %57 ], [ getelementptr inbounds ([2 x i8], [2 x i8]* @str.4, i64 0, i64 0), %40 ]
  %61 = call i32 @puts(i8* nonnull dereferenceable(1) %60)
  br label %62

62:                                               ; preds = %59, %57
  %63 = add nuw nsw i32 %26, 1
  %64 = load i32, i32* %1, align 4, !tbaa !9
  %65 = icmp slt i32 %26, %64
  br i1 %65, label %25, label %10, !llvm.loop !14
}

; Function Attrs: argmemonly mustprogress nofree nosync nounwind willreturn
declare void @llvm.lifetime.start.p0i8(i64 immarg, i8* nocapture) #1

; Function Attrs: nofree nounwind
declare noundef i32 @__isoc99_scanf(i8* nocapture noundef readonly, ...) local_unnamed_addr #2

declare i32 @gets(...) local_unnamed_addr #3

; Function Attrs: argmemonly mustprogress nofree nounwind readonly willreturn
declare i64 @strlen(i8* nocapture) local_unnamed_addr #4

; Function Attrs: argmemonly mustprogress nofree nosync nounwind willreturn
declare void @llvm.lifetime.end.p0i8(i64 immarg, i8* nocapture) #1

; Function Attrs: nofree nounwind
declare noundef i32 @getc(%struct._IO_FILE* nocapture noundef) local_unnamed_addr #2

; Function Attrs: nofree nounwind
declare noundef i32 @puts(i8* nocapture noundef readonly) local_unnamed_addr #5


!llvm.module.flags = !{!0, !1, !2, !3}
!llvm.ident = !{!4}

!0 = !{i32 1, !"wchar_size", i32 4}
!1 = !{i32 7, !"PIC Level", i32 2}
!2 = !{i32 7, !"PIE Level", i32 2}
!3 = !{i32 7, !"uwtable", i32 1}
!4 = !{!"clang version 13.0.0"}
!5 = !{!6, !6, i64 0}
!6 = !{!"any pointer", !7, i64 0}
!7 = !{!"omnipotent char", !8, i64 0}
!8 = !{!"Simple C/C++ TBAA"}
!9 = !{!10, !10, i64 0}
!10 = !{!"int", !7, i64 0}
!11 = !{!7, !7, i64 0}
!12 = distinct !{!12, !13}
!13 = !{!"llvm.loop.mustprogress"}
!14 = distinct !{!14, !13}
